; Function Attrs: nounwind uwtable
define internal fastcc noundef i32 @name_to_group_numbers(ptr noundef captures(none) %0, ptr noundef %1, ptr noundef %2, ptr noundef nonnull writeonly captures(none) %3) unnamed_addr #2 {
  %5 = alloca %struct.st_str_end_key, align 8
  %6 = alloca ptr, align 8
  %7 = getelementptr inbounds nuw i8, ptr %0, i64 72
  %8 = load ptr, ptr %7, align 8, !tbaa !147
  %9 = getelementptr i8, ptr %8, i64 128
  %.val = load ptr, ptr %9, align 8, !tbaa !27
  call void @llvm.lifetime.start.p0(i64 8, ptr nonnull %6) #25
  store ptr null, ptr %6, align 8, !tbaa !4
  %.not.i = icmp eq ptr %.val, null
  br i1 %.not.i, label %name_find.exit.thread, label %name_find.exit

name_find.exit.thread:                            ; preds = %4
  call void @llvm.lifetime.end.p0(i64 8, ptr nonnull %6) #25
  br label %14

name_find.exit:                                   ; preds = %4
  call void @llvm.lifetime.start.p0(i64 16, ptr nonnull %5) #25
  store ptr %1, ptr %5, align 8, !tbaa !16
  %10 = getelementptr inbounds nuw i8, ptr %5, i64 8
  store ptr %2, ptr %10, align 8, !tbaa !13
  %11 = ptrtoint ptr %5 to i64
  %12 = call i32 @onig_st_lookup(ptr noundef nonnull %.val, i64 noundef %11, ptr noundef nonnull %6) #25
  call void @llvm.lifetime.end.p0(i64 16, ptr nonnull %5) #25
  %.pre.i = load ptr, ptr %6, align 8, !tbaa !4
  call void @llvm.lifetime.end.p0(i64 8, ptr nonnull %6) #25
  %13 = icmp eq ptr %.pre.i, null
  br i1 %13, label %14, label %17

14:                                               ; preds = %name_find.exit.thread, %name_find.exit
  %15 = getelementptr inbounds nuw i8, ptr %0, i64 56
  store ptr %1, ptr %15, align 8, !tbaa !160
  %16 = getelementptr inbounds nuw i8, ptr %0, i64 64
  store ptr %2, ptr %16, align 8, !tbaa !161
  br label %25

17:                                               ; preds = %name_find.exit
  %18 = getelementptr inbounds nuw i8, ptr %.pre.i, i64 12
  %19 = load i32, ptr %18, align 4, !tbaa !41
  switch i32 %19, label %22 [
    i32 0, label %25
    i32 1, label %20
  ]

20:                                               ; preds = %17
  %21 = getelementptr inbounds nuw i8, ptr %.pre.i, i64 20
  store ptr %21, ptr %3, align 8, !tbaa !51
  br label %25

22:                                               ; preds = %17
  %23 = getelementptr inbounds nuw i8, ptr %.pre.i, i64 24
  %24 = load ptr, ptr %23, align 8, !tbaa !42
  store ptr %24, ptr %3, align 8, !tbaa !51
  br label %25

25:                                               ; preds = %17, %20, %22, %14
  %.0 = phi i32 [ -217, %14 ], [ %19, %22 ], [ 1, %20 ], [ %19, %17 ]
  ret i32 %.0
}